target datalayout = "e-m:e-p270:32:32-p271:32:32-p272:64:64-i64:64-i128:128-f80:128-n8:16:32:64-S128"
target triple = "x86_64-pc-linux-gnu"

%struct.BCWriteCtx = type { %struct.SBuf, ptr, ptr, ptr, ptr, i32, i32, i32 }
%struct.SBuf = type { ptr, ptr, ptr, %struct.MRef }
%struct.MRef = type { i64 }
%struct.GCRef = type { i64 }
%struct.GCstr = type { %struct.GCRef, i8, i8, i8, i8, i32, i32, i32 }
%struct.anon.0 = type { i32, i32 }

; Function Attrs: alwaysinline nounwind uwtable
define internal ptr @lj_buf_wmem(ptr noundef %0, ptr noundef %1, i32 noundef %2) #2 {
  %4 = alloca ptr, align 8
  %5 = alloca ptr, align 8
  %6 = alloca i32, align 4
  store ptr %0, ptr %4, align 8, !tbaa !47
  store ptr %1, ptr %5, align 8, !tbaa !11
  store i32 %2, ptr %6, align 4, !tbaa !12
  %7 = load ptr, ptr %4, align 8, !tbaa !47
  %8 = load ptr, ptr %5, align 8, !tbaa !11
  %9 = load i32, ptr %6, align 4, !tbaa !12
  %10 = zext i32 %9 to i64
  call void @llvm.memcpy.p0.p0.i64(ptr align 1 %7, ptr align 1 %8, i64 %10, i1 false)
  %11 = load i32, ptr %6, align 4, !tbaa !12
  %12 = zext i32 %11 to i64
  %13 = getelementptr inbounds nuw i8, ptr %7, i64 %12
  ret ptr %13
}

; Function Attrs: alwaysinline nounwind uwtable
define internal ptr @lj_buf_more(ptr noundef %0, i32 noundef %1) #2 {
  %3 = alloca ptr, align 8
  %4 = alloca ptr, align 8
  %5 = alloca i32, align 4
  store ptr %0, ptr %4, align 8, !tbaa !31
  store i32 %1, ptr %5, align 4, !tbaa !12
  %6 = load i32, ptr %5, align 4, !tbaa !12
  %7 = load ptr, ptr %4, align 8, !tbaa !31
  %8 = getelementptr inbounds nuw %struct.SBuf, ptr %7, i32 0, i32 1
  %9 = load ptr, ptr %8, align 8, !tbaa !35
  %10 = load ptr, ptr %4, align 8, !tbaa !31
  %11 = getelementptr inbounds nuw %struct.SBuf, ptr %10, i32 0, i32 0
  %12 = load ptr, ptr %11, align 8, !tbaa !36
  %13 = ptrtoint ptr %9 to i64
  %14 = ptrtoint ptr %12 to i64
  %15 = sub i64 %13, %14
  %16 = trunc i64 %15 to i32
  %17 = icmp ugt i32 %6, %16
  %18 = xor i1 %17, true
  %19 = xor i1 %18, true
  %20 = zext i1 %19 to i32
  %21 = sext i32 %20 to i64
  %22 = call i64 @llvm.expect.i64(i64 %21, i64 0)
  %23 = icmp ne i64 %22, 0
  br i1 %23, label %24, label %28

24:                                               ; preds = %2
  %25 = load ptr, ptr %4, align 8, !tbaa !31
  %26 = load i32, ptr %5, align 4, !tbaa !12
  %27 = call ptr @lj_buf_more2(ptr noundef %25, i32 noundef %26)
  store ptr %27, ptr %3, align 8
  br label %32

28:                                               ; preds = %2
  %29 = load ptr, ptr %4, align 8, !tbaa !31
  %30 = getelementptr inbounds nuw %struct.SBuf, ptr %29, i32 0, i32 0
  %31 = load ptr, ptr %30, align 8, !tbaa !36
  store ptr %31, ptr %3, align 8
  br label %32

32:                                               ; preds = %28, %24
  %33 = load ptr, ptr %3, align 8
  ret ptr %33
}

; Function Attrs: nounwind uwtable
define internal void @bcwrite_ktabk(ptr noundef %0, ptr noundef %1, i32 noundef %2) #0 {
  %4 = alloca ptr, align 8
  %5 = alloca ptr, align 8
  %6 = alloca i32, align 4
  %7 = alloca ptr, align 8
  %8 = alloca ptr, align 8
  %9 = alloca i32, align 4
  %10 = alloca double, align 8
  %11 = alloca i32, align 4
  %12 = alloca i32, align 4
  store ptr %0, ptr %4, align 8, !tbaa !37
  store ptr %1, ptr %5, align 8, !tbaa !89
  store i32 %2, ptr %6, align 4, !tbaa !12
  call void @llvm.lifetime.start.p0(i64 8, ptr %7) #7
  %13 = load ptr, ptr %4, align 8, !tbaa !37
  %14 = getelementptr inbounds nuw %struct.BCWriteCtx, ptr %13, i32 0, i32 0
  %15 = call ptr @lj_buf_more(ptr noundef %14, i32 noundef 11)
  store ptr %15, ptr %7, align 8, !tbaa !47
  %16 = load ptr, ptr %5, align 8, !tbaa !89
  %17 = load i64, ptr %16, align 8, !tbaa !50
  %18 = ashr i64 %17, 47
  %19 = trunc i64 %18 to i32
  %20 = icmp eq i32 %19, -5
  br i1 %20, label %21, label %44

21:                                               ; preds = %3
  call void @llvm.lifetime.start.p0(i64 8, ptr %8) #7
  %22 = load ptr, ptr %5, align 8, !tbaa !89
  %23 = getelementptr inbounds nuw %struct.GCRef, ptr %22, i32 0, i32 0
  %24 = load i64, ptr %23, align 8, !tbaa !50
  %25 = and i64 %24, 140737488355327
  %26 = inttoptr i64 %25 to ptr
  store ptr %26, ptr %8, align 8, !tbaa !45
  call void @llvm.lifetime.start.p0(i64 4, ptr %9) #7
  %27 = load ptr, ptr %8, align 8, !tbaa !45
  %28 = getelementptr inbounds nuw %struct.GCstr, ptr %27, i32 0, i32 7
  %29 = load i32, ptr %28, align 4, !tbaa !48
  store i32 %29, ptr %9, align 4, !tbaa !12
  %30 = load ptr, ptr %4, align 8, !tbaa !37
  %31 = getelementptr inbounds nuw %struct.BCWriteCtx, ptr %30, i32 0, i32 0
  %32 = load i32, ptr %9, align 4, !tbaa !12
  %33 = add i32 5, %32
  %34 = call ptr @lj_buf_more(ptr noundef %31, i32 noundef %33)
  store ptr %34, ptr %7, align 8, !tbaa !47
  %35 = load ptr, ptr %7, align 8, !tbaa !47
  %36 = load i32, ptr %9, align 4, !tbaa !12
  %37 = add i32 5, %36
  %38 = call ptr @lj_strfmt_wuleb128(ptr noundef %35, i32 noundef %37)
  store ptr %38, ptr %7, align 8, !tbaa !47
  %39 = load ptr, ptr %7, align 8, !tbaa !47
  %40 = load ptr, ptr %8, align 8, !tbaa !45
  %41 = getelementptr inbounds %struct.GCstr, ptr %40, i64 1
  %42 = load i32, ptr %9, align 4, !tbaa !12
  %43 = call ptr @lj_buf_wmem(ptr noundef %39, ptr noundef %41, i32 noundef %42)
  store ptr %43, ptr %7, align 8, !tbaa !47
  call void @llvm.lifetime.end.p0(i64 4, ptr %9) #7
  call void @llvm.lifetime.end.p0(i64 8, ptr %8) #7
  br label %100

44:                                               ; preds = %3
  %45 = load ptr, ptr %5, align 8, !tbaa !89
  %46 = load i64, ptr %45, align 8, !tbaa !50
  %47 = ashr i64 %46, 47
  %48 = trunc i64 %47 to i32
  %49 = icmp ult i32 %48, -14
  br i1 %49, label %50, label %89

50:                                               ; preds = %44
  %51 = load i32, ptr %6, align 4, !tbaa !12
  %52 = icmp ne i32 %51, 0
  br i1 %52, label %53, label %76

53:                                               ; preds = %50
  call void @llvm.lifetime.start.p0(i64 8, ptr %10) #7
  %54 = load ptr, ptr %5, align 8, !tbaa !89
  %55 = load double, ptr %54, align 8, !tbaa !50
  store double %55, ptr %10, align 8, !tbaa !91
  call void @llvm.lifetime.start.p0(i64 4, ptr %11) #7
  %56 = load double, ptr %10, align 8, !tbaa !91
  %57 = fptosi double %56 to i32
  store i32 %57, ptr %11, align 4, !tbaa !12
  %58 = load double, ptr %10, align 8, !tbaa !91
  %59 = load i32, ptr %11, align 4, !tbaa !12
  %60 = sitofp i32 %59 to double
  %61 = fcmp oeq double %58, %60
  br i1 %61, label %62, label %72

62:                                               ; preds = %53
  %63 = load ptr, ptr %7, align 8, !tbaa !47
  %64 = getelementptr inbounds nuw i8, ptr %63, i32 1
  store ptr %64, ptr %7, align 8, !tbaa !47
  store i8 3, ptr %63, align 1, !tbaa !50
  %65 = load ptr, ptr %7, align 8, !tbaa !47
  %66 = load i32, ptr %11, align 4, !tbaa !12
  %67 = call ptr @lj_strfmt_wuleb128(ptr noundef %65, i32 noundef %66)
  store ptr %67, ptr %7, align 8, !tbaa !47
  %68 = load ptr, ptr %7, align 8, !tbaa !47
  %69 = load ptr, ptr %4, align 8, !tbaa !37
  %70 = getelementptr inbounds nuw %struct.BCWriteCtx, ptr %69, i32 0, i32 0
  %71 = getelementptr inbounds nuw %struct.SBuf, ptr %70, i32 0, i32 0
  store ptr %68, ptr %71, align 8, !tbaa !73
  store i32 1, ptr %12, align 4
  br label %73

72:                                               ; preds = %53
  store i32 0, ptr %12, align 4
  br label %73

73:                                               ; preds = %72, %62
  call void @llvm.lifetime.end.p0(i64 4, ptr %11) #7
  call void @llvm.lifetime.end.p0(i64 8, ptr %10) #7
  %74 = load i32, ptr %12, align 4
  switch i32 %74, label %105 [
    i32 0, label %75
  ]

75:                                               ; preds = %73
  br label %76

76:                                               ; preds = %75, %50
  %77 = load ptr, ptr %7, align 8, !tbaa !47
  %78 = getelementptr inbounds nuw i8, ptr %77, i32 1
  store ptr %78, ptr %7, align 8, !tbaa !47
  store i8 4, ptr %77, align 1, !tbaa !50
  %79 = load ptr, ptr %7, align 8, !tbaa !47
  %80 = load ptr, ptr %5, align 8, !tbaa !89
  %81 = getelementptr inbounds nuw %struct.anon.0, ptr %80, i32 0, i32 0
  %82 = load i32, ptr %81, align 8, !tbaa !50
  %83 = call ptr @lj_strfmt_wuleb128(ptr noundef %79, i32 noundef %82)
  store ptr %83, ptr %7, align 8, !tbaa !47
  %84 = load ptr, ptr %7, align 8, !tbaa !47
  %85 = load ptr, ptr %5, align 8, !tbaa !89
  %86 = getelementptr inbounds nuw %struct.anon.0, ptr %85, i32 0, i32 1
  %87 = load i32, ptr %86, align 4, !tbaa !50
  %88 = call ptr @lj_strfmt_wuleb128(ptr noundef %84, i32 noundef %87)
  store ptr %88, ptr %7, align 8, !tbaa !47
  br label %99

89:                                               ; preds = %44
  %90 = load ptr, ptr %5, align 8, !tbaa !89
  %91 = load i64, ptr %90, align 8, !tbaa !50
  %92 = ashr i64 %91, 47
  %93 = trunc i64 %92 to i32
  %94 = xor i32 %93, -1
  %95 = add i32 0, %94
  %96 = trunc i32 %95 to i8
  %97 = load ptr, ptr %7, align 8, !tbaa !47
  %98 = getelementptr inbounds nuw i8, ptr %97, i32 1
  store ptr %98, ptr %7, align 8, !tbaa !47
  store i8 %96, ptr %97, align 1, !tbaa !50
  br label %99

99:                                               ; preds = %89, %76
  br label %100

100:                                              ; preds = %99, %21
  %101 = load ptr, ptr %7, align 8, !tbaa !47
  %102 = load ptr, ptr %4, align 8, !tbaa !37
  %103 = getelementptr inbounds nuw %struct.BCWriteCtx, ptr %102, i32 0, i32 0
  %104 = getelementptr inbounds nuw %struct.SBuf, ptr %103, i32 0, i32 0
  store ptr %101, ptr %104, align 8, !tbaa !73
  store i32 0, ptr %12, align 4
  br label %105

105:                                              ; preds = %100, %73
  call void @llvm.lifetime.end.p0(i64 8, ptr %7) #7
  %106 = load i32, ptr %12, align 4
  switch i32 %106, label %108 [
    i32 0, label %107
    i32 1, label %107
  ]

107:                                              ; preds = %105, %105
  ret void

108:                                              ; preds = %105
  unreachable
}