; Function Attrs: nounwind uwtable
define internal fastcc void @bcwrite_ktabk(ptr noundef %0, ptr noundef readonly captures(none) %1, i32 noundef range(i32 0, 2) %2) unnamed_addr #0 {
  %4 = getelementptr inbounds nuw i8, ptr %0, i64 8
  %5 = load ptr, ptr %4, align 8, !tbaa !29
  %6 = load ptr, ptr %0, align 8, !tbaa !80
  %7 = ptrtoint ptr %5 to i64
  %8 = ptrtoint ptr %6 to i64
  %9 = sub i64 %7, %8
  %10 = trunc i64 %9 to i32
  %11 = icmp ult i32 %10, 11
  br i1 %11, label %12, label %lj_buf_more.exit34, !prof !42

12:                                               ; preds = %3
  %13 = tail call ptr @lj_buf_more2(ptr noundef nonnull %0, i32 noundef 11) #7
  br label %lj_buf_more.exit34

lj_buf_more.exit34:                               ; preds = %3, %12
  %.0.i33 = phi ptr [ %13, %12 ], [ %6, %3 ]
  %14 = load i64, ptr %1, align 8
  %15 = ashr i64 %14, 47
  %16 = trunc i64 %15 to i8
  %17 = icmp eq i64 %15, -5
  %18 = bitcast i64 %14 to double
  br i1 %17, label %19, label %38

19:                                               ; preds = %lj_buf_more.exit34
  %20 = and i64 %14, 140737488355327
  %21 = inttoptr i64 %20 to ptr
  %22 = getelementptr inbounds nuw i8, ptr %21, i64 20
  %23 = load i32, ptr %22, align 4, !tbaa !46
  %24 = add i32 %23, 5
  %25 = load ptr, ptr %4, align 8, !tbaa !29
  %26 = load ptr, ptr %0, align 8, !tbaa !80
  %27 = ptrtoint ptr %25 to i64
  %28 = ptrtoint ptr %26 to i64
  %29 = sub i64 %27, %28
  %30 = trunc i64 %29 to i32
  %31 = icmp ugt i32 %24, %30
  br i1 %31, label %32, label %lj_buf_more.exit, !prof !42

32:                                               ; preds = %19
  %33 = tail call ptr @lj_buf_more2(ptr noundef nonnull %0, i32 noundef %24) #7
  br label %lj_buf_more.exit

lj_buf_more.exit:                                 ; preds = %19, %32
  %.0.i = phi ptr [ %33, %32 ], [ %26, %19 ]
  %34 = tail call ptr @lj_strfmt_wuleb128(ptr noundef %.0.i, i32 noundef %24) #7
  %35 = getelementptr inbounds nuw i8, ptr %21, i64 24
  %36 = zext i32 %23 to i64
  tail call void @llvm.memcpy.p0.p0.i64(ptr align 1 %34, ptr nonnull align 1 %35, i64 %36, i1 false)
  %37 = getelementptr inbounds nuw i8, ptr %34, i64 %36
  br label %57

38:                                               ; preds = %lj_buf_more.exit34
  %39 = icmp ult i64 %15, -14
  br i1 %39, label %40, label %54

40:                                               ; preds = %38
  %.not = icmp eq i32 %2, 0
  br i1 %.not, label %.thread, label %41

41:                                               ; preds = %40
  %42 = fptosi double %18 to i32
  %43 = sitofp i32 %42 to double
  %44 = fcmp une double %18, %43
  br i1 %44, label %.thread, label %45

45:                                               ; preds = %41
  %46 = getelementptr inbounds nuw i8, ptr %.0.i33, i64 1
  store i8 3, ptr %.0.i33, align 1, !tbaa !47
  %47 = tail call ptr @lj_strfmt_wuleb128(ptr noundef nonnull %46, i32 noundef %42) #7
  br label %57

.thread:                                          ; preds = %41, %40
  %48 = getelementptr inbounds nuw i8, ptr %.0.i33, i64 1
  store i8 4, ptr %.0.i33, align 1, !tbaa !47
  %49 = load i32, ptr %1, align 8, !tbaa !47
  %50 = tail call ptr @lj_strfmt_wuleb128(ptr noundef nonnull %48, i32 noundef %49) #7
  %51 = getelementptr inbounds nuw i8, ptr %1, i64 4
  %52 = load i32, ptr %51, align 4, !tbaa !47
  %53 = tail call ptr @lj_strfmt_wuleb128(ptr noundef %50, i32 noundef %52) #7
  br label %57

54:                                               ; preds = %38
  %55 = xor i8 %16, -1
  %56 = getelementptr inbounds nuw i8, ptr %.0.i33, i64 1
  store i8 %55, ptr %.0.i33, align 1, !tbaa !47
  br label %57

57:                                               ; preds = %lj_buf_more.exit, %54, %.thread, %45
  %storemerge = phi ptr [ %47, %45 ], [ %37, %lj_buf_more.exit ], [ %53, %.thread ], [ %56, %54 ]
  store ptr %storemerge, ptr %0, align 8, !tbaa !79
  ret void
}